Certificate:
    Data:
        Version: 3 (0x2)
        Serial Number: 1 (0x1)
    Signature Algorithm: sha256WithRSAEncryption
        Issuer: CN=devcert
        Validity
            Not Before: Apr 28 04:12:40 2020 GMT
            Not After : Aug  1 04:12:40 2022 GMT
        Subject: CN=localhost
        Subject Public Key Info:
            Public Key Algorithm: rsaEncryption
                Public-Key: (2048 bit)
                Modulus:
                    00:bd:37:d2:22:1a:c8:d8:8c:8d:7c:62:a6:4b:61:
                    f2:b5:77:82:b9:47:4a:bf:83:64:4e:fa:3f:84:51:
                    aa:44:a4:af:be:e3:41:9e:b8:30:b8:b3:79:14:cd:
                    0a:a4:0a:90:73:a9:1e:77:2c:2f:08:94:25:8a:5a:
                    f5:ba:31:b0:c9:c7:2d:99:a2:29:f4:13:af:bd:88:
                    57:6e:e6:64:55:97:34:bb:2c:30:8d:41:a3:74:db:
                    d5:25:a0:4e:28:8a:04:d2:8c:9c:25:9b:bb:fc:1c:
                    a4:d7:94:47:8e:71:50:4c:34:cf:91:a8:0f:ab:f3:
                    bd:dc:97:2f:24:41:d5:b6:0c:c9:32:f9:70:63:7d:
                    60:b0:9f:d5:2e:fd:62:76:b5:7e:ec:84:51:e2:bf:
                    78:b3:6b:cd:2b:ee:e7:9b:c2:c0:75:1c:a0:dd:f6:
                    9b:13:fa:3e:e7:0b:af:a3:3d:91:58:a1:a9:e4:e3:
                    6d:63:0d:c9:2e:f5:2a:2d:67:1b:71:33:0f:f8:d1:
                    c8:16:c6:84:62:0a:e4:ce:61:61:e7:15:0f:db:77:
                    59:81:ad:c1:f6:90:d0:2b:c9:ec:76:c8:6f:ec:07:
                    d2:87:98:9d:29:11:8e:6c:63:63:e1:10:d0:78:3d:
                    b0:c1:12:c8:d2:70:8c:77:94:8d:53:6a:a7:e9:8a:
                    ca:4d
                Exponent: 65537 (0x10001)
        X509v3 extensions:
            X509v3 Basic Constraints: critical
                CA:FALSE
            X509v3 Subject Key Identifier: 
                45:B8:F0:1F:07:39:D0:0F:BC:74:C2:4A:1F:D5:D7:8F:FE:46:57:D0
            X509v3 Authority Key Identifier: 
                keyid:04:A7:F8:93:A2:CB:C2:09:68:F4:07:91:BE:03:AF:A8:17:D1:0C:54
                DirName:/CN=devcert
                serial:F5:5A:B3:8E:32:83:FE:EC

            X509v3 Key Usage: critical
                Digital Signature, Key Encipherment
            X509v3 Extended Key Usage: 
                TLS Web Server Authentication
            X509v3 Subject Alternative Name: 
                DNS:localhost, DNS:*.localhost
    Signature Algorithm: sha256WithRSAEncryption
         80:c2:04:b5:da:0f:ba:36:aa:b0:49:40:f3:09:f2:ad:73:76:
         0e:6e:ac:7e:bc:e8:06:07:5f:18:9f:f2:1f:77:d0:c3:1d:1d:
         11:0b:5f:8a:46:b0:05:a5:d1:d6:47:ac:d5:5b:6c:14:43:1c:
         8b:00:e4:7c:ab:4b:c2:ff:13:48:7b:f7:82:e4:c1:24:67:71:
         91:f6:da:8d:3d:d8:81:80:60:3b:30:e8:0c:01:2c:80:12:84:
         8a:6b:41:4d:2c:c2:cd:ea:2c:b8:e4:0a:be:56:34:16:56:ef:
         d8:50:89:ab:88:85:6e:ea:ec:af:00:46:06:f1:34:5c:f4:91:
         04:d3:0f:22:97:a0:ac:d0:32:2e:fa:ea:52:3d:1b:31:3e:15:
         5b:03:30:29:97:de:93:a3:3d:ee:0e:ee:71:14:41:e6:ac:7e:
         e0:9e:a9:cf:e9:51:52:1d:be:13:6c:62:64:63:0a:a2:98:e6:
         2a:84:26:ef:46:c2:0e:d2:54:04:55:38:12:63:0d:b4:cb:3c:
         07:99:8f:02:87:75:44:a3:92:44:db:63:d2:a8:8f:fb:53:ea:
         2b:aa:bd:17:2c:6f:0a:88:32:b9:9d:2b:f8:86:2d:57:6b:cf:
         22:5e:78:a1:26:3d:43:e4:55:69:85:1d:33:a0:1d:d7:69:f0:
         76:8c:65:32
-----BEGIN CERTIFICATE-----
MIIDXjCCAkagAwIBAgIBATANBgkqhkiG9w0BAQsFADASMRAwDgYDVQQDDAdkZXZj
ZXJ0MB4XDTIwMDQyODA0MTI0MFoXDTIyMDgwMTA0MTI0MFowFDESMBAGA1UEAwwJ
bG9jYWxob3N0MIIBIjANBgkqhkiG9w0BAQEFAAOCAQ8AMIIBCgKCAQEAvTfSIhrI
2IyNfGKmS2HytXeCuUdKv4NkTvo/hFGqRKSvvuNBnrgwuLN5FM0KpAqQc6kedywv
CJQlilr1ujGwycctmaIp9BOvvYhXbuZkVZc0uywwjUGjdNvVJaBOKIoE0oycJZu7
/Byk15RHjnFQTDTPkagPq/O93JcvJEHVtgzJMvlwY31gsJ/VLv1idrV+7IRR4r94
s2vNK+7nm8LAdRyg3fabE/o+5wuvoz2RWKGp5ONtYw3JLvUqLWcbcTMP+NHIFsaE
YgrkzmFh5xUP23dZga3B9pDQK8nsdshv7AfSh5idKRGObGNj4RDQeD2wwRLI0nCM
d5SNU2qn6YrKTQIDAQABo4G8MIG5MAwGA1UdEwEB/wQCMAAwHQYDVR0OBBYEFEW4
8B8HOdAPvHTCSh/V14/+RlfQMEIGA1UdIwQ7MDmAFASn+JOiy8IJaPQHkb4Dr6gX
0QxUoRakFDASMRAwDgYDVQQDDAdkZXZjZXJ0ggkA9VqzjjKD/uwwDgYDVR0PAQH/
BAQDAgWgMBMGA1UdJQQMMAoGCCsGAQUFBwMBMCEGA1UdEQQaMBiCCWxvY2FsaG9z
dIILKi5sb2NhbGhvc3QwDQYJKoZIhvcNAQELBQADggEBAIDCBLXaD7o2qrBJQPMJ
8q1zdg5urH686AYHXxif8h930MMdHRELX4pGsAWl0dZHrNVbbBRDHIsA5HyrS8L/
E0h794LkwSRncZH22o092IGAYDsw6AwBLIAShIprQU0sws3qLLjkCr5WNBZW79hQ
iauIhW7q7K8ARgbxNFz0kQTTDyKXoKzQMi766lI9GzE+FVsDMCmX3pOjPe4O7nEU
QeasfuCeqc/pUVIdvhNsYmRjCqKY5iqEJu9Gwg7SVARVOBJjDbTLPAeZjwKHdUSj
kkTbY9Koj/tT6iuqvRcsbwqIMrmdK/iGLVdrzyJeeKEmPUPkVWmFHTOgHddp8HaM
ZTI=
-----END CERTIFICATE-----
